Certificate:
    Data:
        Version: 3 (0x2)
        Serial Number:
            04:24:b8:77:a5:0c:9e:da:20:83:39:12:bb:05:18:e0:8f:e0:3f:f9
        Signature Algorithm: sha256WithRSAEncryption
        Issuer: CN = localhost
        Validity
            Not Before: Feb 18 21:11:32 2024 GMT
            Not After : Feb 13 21:11:32 2044 GMT
        Subject: CN = localhost
        Subject Public Key Info:
            Public Key Algorithm: rsaEncryption
                RSA Public-Key: (2048 bit)
                Modulus:
                    00:9f:c9:fc:d6:04:ae:5d:ad:c3:38:99:0f:df:a7:
                    8c:3a:fb:e1:d5:c9:a1:70:4a:85:d5:8b:fc:4c:a4:
                    78:36:cd:23:07:7c:4c:ee:06:cf:50:7a:56:8e:44:
                    7d:47:ea:24:bc:14:de:93:04:17:49:32:98:68:7e:
                    b9:43:bc:98:83:2e:67:6d:56:1f:f9:03:d8:63:bf:
                    af:3a:34:b5:bf:8e:14:be:56:70:01:2f:c4:b4:81:
                    e7:49:a1:e8:7c:0e:95:c3:21:c3:6a:10:80:ed:c5:
                    bc:a3:9f:d5:b1:41:82:f7:7a:08:79:d9:f6:d9:8e:
                    db:16:0d:5b:ec:6b:d9:2d:c4:19:e4:b8:00:da:82:
                    5a:74:12:4f:fa:fd:00:32:0b:6b:cd:c4:fb:1e:aa:
                    aa:8e:3e:f3:5f:87:92:92:92:2d:21:d7:58:36:06:
                    47:58:2e:0f:67:8b:03:cf:1d:5c:73:94:31:e3:ea:
                    ff:63:14:a0:ae:42:08:fc:c2:82:cd:ff:c7:ab:6d:
                    b6:e8:f3:05:53:a1:7e:8c:4a:58:3d:9b:3b:ea:d6:
                    10:48:ee:6a:ac:80:37:75:8f:2e:8c:1a:e5:4a:e5:
                    06:16:9f:57:4b:60:87:b6:89:33:6d:f6:fc:46:42:
                    9e:c9:61:bd:49:e4:18:02:54:37:6f:b4:2f:ed:38:
                    f3:6f
                Exponent: 65537 (0x10001)
        X509v3 extensions:
            X509v3 Subject Key Identifier: 
                21:DA:D5:5E:DE:35:D4:D4:98:54:B6:5D:D4:05:3C:2A:46:0E:77:E5
            X509v3 Authority Key Identifier: 
                keyid:21:DA:D5:5E:DE:35:D4:D4:98:54:B6:5D:D4:05:3C:2A:46:0E:77:E5

            X509v3 Basic Constraints: critical
                CA:TRUE
    Signature Algorithm: sha256WithRSAEncryption
         1f:39:ec:7f:84:3b:42:33:f6:3f:df:ab:ea:b8:b2:c1:1f:40:
         12:b1:b1:e5:af:ac:30:ab:5d:06:55:17:0e:ea:2a:e5:74:b4:
         2a:6e:b3:aa:1b:f3:ce:1d:64:b4:26:75:64:80:1c:3b:87:14:
         b9:56:84:94:95:4e:fb:83:0d:c3:8b:a5:24:6f:35:9b:27:9e:
         5a:6c:88:16:38:c9:eb:6d:52:8c:3a:8c:08:ed:ad:7f:a5:cf:
         66:29:3c:46:b9:b0:2d:96:1b:e1:16:51:63:8c:a7:f1:ca:33:
         c2:73:6e:f3:a2:41:d0:d0:96:de:1d:4e:80:f3:e5:d3:fc:27:
         3a:b8:1d:42:4a:ba:c8:81:44:62:6d:b5:89:34:00:51:9b:cf:
         68:86:a6:1e:82:ed:21:9e:f7:50:83:3c:ac:23:14:94:63:a7:
         55:c1:c7:87:4c:6c:4c:b0:b3:59:75:88:cc:cc:fe:13:11:8d:
         b9:11:1f:86:f5:32:16:be:66:ff:8a:5a:1e:b8:a2:87:99:4c:
         b9:0d:c5:2c:d4:4c:6e:cd:9a:3b:6f:c0:c0:30:b0:56:d7:f7:
         b0:fb:cd:82:2e:1e:40:f6:7b:2b:b3:15:55:b7:e1:cb:e8:3f:
         cb:b5:4d:e0:99:36:d3:ae:81:3c:48:56:9b:69:ca:78:ac:e3:
         6b:a6:ad:3d
-----BEGIN CERTIFICATE-----
MIIDCTCCAfGgAwIBAgIUBCS4d6UMntoggzkSuwUY4I/gP/kwDQYJKoZIhvcNAQEL
BQAwFDESMBAGA1UEAwwJbG9jYWxob3N0MB4XDTI0MDIxODIxMTEzMloXDTQ0MDIx
MzIxMTEzMlowFDESMBAGA1UEAwwJbG9jYWxob3N0MIIBIjANBgkqhkiG9w0BAQEF
AAOCAQ8AMIIBCgKCAQEAn8n81gSuXa3DOJkP36eMOvvh1cmhcEqF1Yv8TKR4Ns0j
B3xM7gbPUHpWjkR9R+okvBTekwQXSTKYaH65Q7yYgy5nbVYf+QPYY7+vOjS1v44U
vlZwAS/EtIHnSaHofA6VwyHDahCA7cW8o5/VsUGC93oIedn22Y7bFg1b7GvZLcQZ
5LgA2oJadBJP+v0AMgtrzcT7Hqqqjj7zX4eSkpItIddYNgZHWC4PZ4sDzx1cc5Qx
4+r/YxSgrkII/MKCzf/Hq2226PMFU6F+jEpYPZs76tYQSO5qrIA3dY8ujBrlSuUG
Fp9XS2CHtokzbfb8RkKeyWG9SeQYAlQ3b7Qv7TjzbwIDAQABo1MwUTAdBgNVHQ4E
FgQUIdrVXt411NSYVLZd1AU8KkYOd+UwHwYDVR0jBBgwFoAUIdrVXt411NSYVLZd
1AU8KkYOd+UwDwYDVR0TAQH/BAUwAwEB/zANBgkqhkiG9w0BAQsFAAOCAQEAHzns
f4Q7QjP2P9+r6riywR9AErGx5a+sMKtdBlUXDuoq5XS0Km6zqhvzzh1ktCZ1ZIAc
O4cUuVaElJVO+4MNw4ulJG81myeeWmyIFjjJ621SjDqMCO2tf6XPZik8RrmwLZYb
4RZRY4yn8cozwnNu86JB0NCW3h1OgPPl0/wnOrgdQkq6yIFEYm21iTQAUZvPaIam
HoLtIZ73UIM8rCMUlGOnVcHHh0xsTLCzWXWIzMz+ExGNuREfhvUyFr5m/4paHrii
h5lMuQ3FLNRMbs2aO2/AwDCwVtf3sPvNgi4eQPZ7K7MVVbfhy+g/y7VN4Jk2066B
PEhWm2nKeKzja6atPQ==
-----END CERTIFICATE-----
